; Function Attrs: mustprogress nofree norecurse nosync nounwind willreturn memory(argmem: read) uwtable
define dso_local i64 @archive_entry_devmajor(ptr noundef readonly captures(none) %0) local_unnamed_addr #10 {
  %2 = getelementptr inbounds nuw i8, ptr %0, i64 128
  %3 = load i32, ptr %2, align 8, !tbaa !52
  %.not = icmp eq i32 %3, 0
  br i1 %.not, label %7, label %4

4:                                                ; preds = %1
  %5 = getelementptr inbounds nuw i8, ptr %0, i64 144
  %6 = load i64, ptr %5, align 8, !tbaa !53
  br label %15

7:                                                ; preds = %1
  %8 = getelementptr inbounds nuw i8, ptr %0, i64 136
  %9 = load i64, ptr %8, align 8, !tbaa !55
  %10 = lshr i64 %9, 8
  %11 = and i64 %10, 4095
  %12 = lshr i64 %9, 32
  %13 = and i64 %12, 4294963200
  %14 = or disjoint i64 %11, %13
  br label %15

15:                                               ; preds = %7, %4
  %.0 = phi i64 [ %6, %4 ], [ %14, %7 ]
  ret i64 %.0
}